target datalayout = "e-m:e-p270:32:32-p271:32:32-p272:64:64-i64:64-i128:128-f80:128-n8:16:32:64-S128"
target triple = "x86_64-pc-linux-gnu"

%"class.std::__cxx11::basic_string" = type { %"struct.std::__cxx11::basic_string<char>::_Alloc_hider", i64, %union.anon }
%"struct.std::__cxx11::basic_string<char>::_Alloc_hider" = type { ptr }
%union.anon = type { i64, [8 x i8] }
%"class.duckdb_apache::thrift::TBase" = type { ptr }
%"class.duckdb_parquet::DecimalType" = type { %"class.duckdb_apache::thrift::TBase", i32, i32 }
%"class.duckdb_parquet::TimeUnit" = type <{ %"class.duckdb_apache::thrift::TBase", %"class.duckdb_parquet::MilliSeconds", %"class.duckdb_parquet::MicroSeconds", %"class.duckdb_parquet::NanoSeconds", %"struct.duckdb_parquet::_TimeUnit__isset", [7 x i8] }>
%"class.duckdb_parquet::MilliSeconds" = type { %"class.duckdb_apache::thrift::TBase" }
%"class.duckdb_parquet::MicroSeconds" = type { %"class.duckdb_apache::thrift::TBase" }
%"class.duckdb_parquet::NanoSeconds" = type { %"class.duckdb_apache::thrift::TBase" }
%"struct.duckdb_parquet::_TimeUnit__isset" = type { i8 }
%"class.duckdb_parquet::TimestampType" = type { %"class.duckdb_apache::thrift::TBase", i8, [7 x i8], %"class.duckdb_parquet::TimeUnit" }
%"class.duckdb_parquet::TimeType" = type { %"class.duckdb_apache::thrift::TBase", i8, [7 x i8], %"class.duckdb_parquet::TimeUnit" }
%"class.duckdb_parquet::IntType" = type <{ %"class.duckdb_apache::thrift::TBase", i8, i8, [6 x i8] }>
%"class.duckdb_parquet::LogicalType" = type <{ %"class.duckdb_apache::thrift::TBase", %"class.duckdb_parquet::StringType", %"class.duckdb_parquet::MapType", %"class.duckdb_parquet::ListType", %"class.duckdb_parquet::EnumType", %"class.duckdb_parquet::DecimalType", %"class.duckdb_parquet::DateType", %"class.duckdb_parquet::TimeType", %"class.duckdb_parquet::TimestampType", %"class.duckdb_parquet::IntType", %"class.duckdb_parquet::NullType", %"class.duckdb_parquet::JsonType", %"class.duckdb_parquet::BsonType", %"class.duckdb_parquet::UUIDType", %"class.duckdb_parquet::Float16Type", %"struct.duckdb_parquet::_LogicalType__isset", [6 x i8] }>
%"class.duckdb_parquet::StringType" = type { %"class.duckdb_apache::thrift::TBase" }
%"class.duckdb_parquet::MapType" = type { %"class.duckdb_apache::thrift::TBase" }
%"class.duckdb_parquet::ListType" = type { %"class.duckdb_apache::thrift::TBase" }
%"class.duckdb_parquet::EnumType" = type { %"class.duckdb_apache::thrift::TBase" }
%"class.duckdb_parquet::DateType" = type { %"class.duckdb_apache::thrift::TBase" }
%"class.duckdb_parquet::NullType" = type { %"class.duckdb_apache::thrift::TBase" }
%"class.duckdb_parquet::JsonType" = type { %"class.duckdb_apache::thrift::TBase" }
%"class.duckdb_parquet::BsonType" = type { %"class.duckdb_apache::thrift::TBase" }
%"class.duckdb_parquet::UUIDType" = type { %"class.duckdb_apache::thrift::TBase" }
%"class.duckdb_parquet::Float16Type" = type { %"class.duckdb_apache::thrift::TBase" }
%"struct.duckdb_parquet::_LogicalType__isset" = type { i16 }
%"class.duckdb_parquet::SchemaElement" = type <{ %"class.duckdb_apache::thrift::TBase", i32, i32, i32, [4 x i8], %"class.std::__cxx11::basic_string", i32, i32, i32, i32, i32, [4 x i8], %"class.duckdb_parquet::LogicalType", %"struct.duckdb_parquet::_SchemaElement__isset", [6 x i8] }>
%"struct.duckdb_parquet::_SchemaElement__isset" = type { i16 }

; Function Attrs: mustprogress nounwind uwtable
define void @_ZN14duckdb_parquet13SchemaElement21__set_repetition_typeENS_19FieldRepetitionType4typeE(ptr noundef nonnull align 8 dereferenceable(322) %0, i32 noundef %1) #1 align 2 {
  %3 = alloca ptr, align 8
  %4 = alloca i32, align 4
  store ptr %0, ptr %3, align 8, !tbaa !215
  store i32 %1, ptr %4, align 4, !tbaa !50
  %5 = load ptr, ptr %3, align 8
  %6 = load i32, ptr %4, align 4, !tbaa !50
  %7 = getelementptr inbounds nuw %"class.duckdb_parquet::SchemaElement", ptr %5, i32 0, i32 3
  store i32 %6, ptr %7, align 8, !tbaa !233
  %8 = getelementptr inbounds nuw %"class.duckdb_parquet::SchemaElement", ptr %5, i32 0, i32 13
  %9 = load i16, ptr %8, align 8
  %10 = and i16 %9, -5
  %11 = or i16 %10, 4
  store i16 %11, ptr %8, align 8
  ret void
}