; Function Attrs: mustprogress nofree norecurse nosync nounwind willreturn memory(argmem: readwrite) uwtable
define void @_ZN14duckdb_parquet13SchemaElement21__set_repetition_typeENS_19FieldRepetitionType4typeE(ptr noundef nonnull align 8 captures(none) dereferenceable(322) initializes((16, 20)) %0, i32 noundef %1) local_unnamed_addr #10 align 2 {
  %3 = getelementptr inbounds nuw i8, ptr %0, i64 16
  store i32 %1, ptr %3, align 8, !tbaa !345
  %4 = getelementptr inbounds nuw i8, ptr %0, i64 320
  %5 = load i16, ptr %4, align 8
  %6 = or i16 %5, 4
  store i16 %6, ptr %4, align 8
  ret void
}